; Function Attrs: mustprogress nounwind uwtable
define dso_local void @_ZN5clang4ento18setDynamicTypeInfoEN4llvm18IntrusiveRefCntPtrIKNS0_12ProgramStateEEEPKNS0_9MemRegionENS0_15DynamicTypeInfoE(ptr dead_on_unwind noalias nocapture writable writeonly sret(%"class.llvm::IntrusiveRefCntPtr") align 8 %0, ptr nocapture noundef %1, ptr noundef nonnull %2, i64 %3, i8 %4) local_unnamed_addr #0 {
  %6 = alloca %"class.llvm::IntrusiveRefCntPtr", align 8
  %7 = load ptr, ptr %1, align 8
  %8 = tail call noundef nonnull ptr @_ZNK5clang4ento9MemRegion10StripCastsEb(ptr noundef nonnull align 8 dereferenceable(48) %2, i1 noundef zeroext true) #14
  call fastcc void @_ZNK5clang4ento12ProgramState3setIN12_GLOBAL__N_114DynamicTypeMapEEEN4llvm18IntrusiveRefCntPtrIKS1_EENS0_17ProgramStateTraitIT_E8key_typeENSB_10value_typeE(ptr dead_on_unwind noalias nonnull writable align 8 %6, ptr noundef nonnull align 8 dereferenceable(48) %7, ptr noundef nonnull %8, i64 %3, i8 %4)
  %9 = load ptr, ptr %6, align 8
  %10 = load ptr, ptr %1, align 8
  store ptr %10, ptr %6, align 8
  store ptr %9, ptr %1, align 8
  %.not.i.i = icmp eq ptr %10, null
  br i1 %.not.i.i, label %_ZN4llvm18IntrusiveRefCntPtrIKN5clang4ento12ProgramStateEED2Ev.exit, label %11

11:                                               ; preds = %5
  call void @_ZN5clang4ento19ProgramStateReleaseEPKNS0_12ProgramStateE(ptr noundef nonnull %10) #14
  %.pre = load ptr, ptr %1, align 8
  br label %_ZN4llvm18IntrusiveRefCntPtrIKN5clang4ento12ProgramStateEED2Ev.exit

_ZN4llvm18IntrusiveRefCntPtrIKN5clang4ento12ProgramStateEED2Ev.exit: ; preds = %5, %11
  %12 = phi ptr [ %9, %5 ], [ %.pre, %11 ]
  store ptr %12, ptr %0, align 8
  store ptr null, ptr %1, align 8
  ret void
}